
/home/phillip/source/pico_c/MyBlinkerWithRTTMods/build/pico-sdk/src/rp2350/boot_stage2/bs2_default.elf:     file format elf32-littlearm

Sections:
Idx Name          Size      VMA       LMA       File off  Algn
  0 .text         000000a4  00000000  00000000  00001000  2**2
                  CONTENTS, ALLOC, LOAD, READONLY, CODE
  1 .ARM.attributes 00000028  00000000  00000000  000010a4  2**0
                  CONTENTS, READONLY
  2 .debug_line   000000b4  00000000  00000000  000010cc  2**0
                  CONTENTS, READONLY, DEBUGGING, OCTETS
  3 .debug_line_str 00000107  00000000  00000000  00001180  2**0
                  CONTENTS, READONLY, DEBUGGING, OCTETS
  4 .debug_info   00000025  00000000  00000000  00001287  2**0
                  CONTENTS, READONLY, DEBUGGING, OCTETS
  5 .debug_abbrev 00000014  00000000  00000000  000012ac  2**0
                  CONTENTS, READONLY, DEBUGGING, OCTETS
  6 .debug_aranges 00000020  00000000  00000000  000012c0  2**3
                  CONTENTS, READONLY, DEBUGGING, OCTETS
  7 .debug_str    0000008e  00000000  00000000  000012e0  2**0
                  CONTENTS, READONLY, DEBUGGING, OCTETS

/home/phillip/source/pico_c/MyBlinkerWithRTTMods/build/pico-sdk/src/rp2350/boot_stage2/bs2_default.elf:     file format elf32-littlearm


Disassembly of section .text:

00000000 <_stage2_boot>:
   0:	b500      	push	{lr}

00000002 <_pad_config>:
   2:	4b24      	ldr	r3, [pc, #144]	@ (94 <literals>)
   4:	2021      	movs	r0, #33	@ 0x21
   6:	6058      	str	r0, [r3, #4]
   8:	f513 5340 	adds.w	r3, r3, #12288	@ 0x3000
   c:	2002      	movs	r0, #2
   e:	6098      	str	r0, [r3, #8]
  10:	60d8      	str	r0, [r3, #12]
  12:	6118      	str	r0, [r3, #16]
  14:	6158      	str	r0, [r3, #20]
  16:	f513 230d 	adds.w	r3, r3, #577536	@ 0x8d000

0000001a <program_sregs>:
  1a:	491f      	ldr	r1, [pc, #124]	@ (98 <literals+0x4>)
  1c:	6019      	str	r1, [r3, #0]
  1e:	6818      	ldr	r0, [r3, #0]
  20:	f010 0f02 	tst.w	r0, #2
  24:	d1fb      	bne.n	1e <program_sregs+0x4>
  26:	2035      	movs	r0, #53	@ 0x35
  28:	f000 f82c 	bl	84 <read_flash_sreg>
  2c:	2802      	cmp	r0, #2
  2e:	d014      	beq.n	5a <_skip_sreg_programming>
  30:	2006      	movs	r0, #6
  32:	6058      	str	r0, [r3, #4]
  34:	f000 f822 	bl	7c <wait_qmi_ready>
  38:	6898      	ldr	r0, [r3, #8]
  3a:	2001      	movs	r0, #1
  3c:	6058      	str	r0, [r3, #4]
  3e:	2000      	movs	r0, #0
  40:	6058      	str	r0, [r3, #4]
  42:	2002      	movs	r0, #2
  44:	6058      	str	r0, [r3, #4]
  46:	f000 f819 	bl	7c <wait_qmi_ready>
  4a:	6898      	ldr	r0, [r3, #8]
  4c:	6898      	ldr	r0, [r3, #8]
  4e:	6898      	ldr	r0, [r3, #8]
  50:	2005      	movs	r0, #5
  52:	f000 f817 	bl	84 <read_flash_sreg>
  56:	0840      	lsrs	r0, r0, #1
  58:	d2fa      	bcs.n	50 <program_sregs+0x36>

0000005a <_skip_sreg_programming>:
  5a:	f031 0101 	bics.w	r1, r1, #1
  5e:	6019      	str	r1, [r3, #0]

00000060 <_qmi_config>:
  60:	480e      	ldr	r0, [pc, #56]	@ (9c <literals+0x8>)
  62:	60d8      	str	r0, [r3, #12]
  64:	f24a 00eb 	movw	r0, #41195	@ 0xa0eb
  68:	6158      	str	r0, [r3, #20]
  6a:	480d      	ldr	r0, [pc, #52]	@ (a0 <literals+0xc>)
  6c:	6118      	str	r0, [r3, #16]
  6e:	f04f 51a0 	mov.w	r1, #335544320	@ 0x14000000
  72:	7809      	ldrb	r1, [r1, #0]
  74:	f420 5080 	bic.w	r0, r0, #4096	@ 0x1000
  78:	6118      	str	r0, [r3, #16]
  7a:	bd00      	pop	{pc}

0000007c <wait_qmi_ready>:
  7c:	6818      	ldr	r0, [r3, #0]
  7e:	0880      	lsrs	r0, r0, #2
  80:	d2fc      	bcs.n	7c <wait_qmi_ready>
  82:	4770      	bx	lr

00000084 <read_flash_sreg>:
  84:	b500      	push	{lr}
  86:	6058      	str	r0, [r3, #4]
  88:	6058      	str	r0, [r3, #4]
  8a:	f7ff fff7 	bl	7c <wait_qmi_ready>
  8e:	6898      	ldr	r0, [r3, #8]
  90:	6898      	ldr	r0, [r3, #8]
  92:	bd00      	pop	{pc}

00000094 <literals>:
  94:	40040000 	.word	0x40040000
  98:	07800041 	.word	0x07800041
  9c:	40000202 	.word	0x40000202
  a0:	000492a8 	.word	0x000492a8
